; Function Attrs: mustprogress nofree norecurse nosync nounwind willreturn memory(read, inaccessiblemem: none) uwtable
define ptr @ossl_quic_obj_get0_handshake_layer(ptr noundef readonly captures(none) %0) local_unnamed_addr #2 {
  %2 = load i32, ptr %0, align 8, !tbaa !62
  %.not = icmp eq i32 %2, 128
  br i1 %.not, label %3, label %10

3:                                                ; preds = %1
  %4 = getelementptr inbounds nuw i8, ptr %0, i64 120
  %5 = load ptr, ptr %4, align 8, !tbaa !63
  %6 = icmp eq ptr %5, null
  br i1 %6, label %10, label %7

7:                                                ; preds = %3
  %8 = load i32, ptr %5, align 8, !tbaa !3
  %9 = icmp eq i32 %8, 0
  %spec.select = select i1 %9, ptr %5, ptr null
  br label %10

10:                                               ; preds = %7, %3, %1
  %.0 = phi ptr [ null, %1 ], [ null, %3 ], [ %spec.select, %7 ]
  ret ptr %.0
}